target datalayout = "e-m:e-p270:32:32-p271:32:32-p272:64:64-i64:64-i128:128-f80:128-n8:16:32:64-S128"
target triple = "x86_64-pc-linux-gnu"

%struct._php_output_buffer = type { ptr, i64, i64, i32 }
%struct._php_output_handler = type { ptr, i32, i32, i64, %struct._php_output_buffer, ptr, ptr, %union.anon.2 }
%union.anon.2 = type { ptr }

; Function Attrs: nounwind uwtable
define dso_local void @php_output_handler_free(ptr noundef %0) #0 {
  %2 = alloca ptr, align 8
  store ptr %0, ptr %2, align 8, !tbaa !27
  %3 = load ptr, ptr %2, align 8, !tbaa !27
  %4 = load ptr, ptr %3, align 8, !tbaa !55
  %5 = icmp ne ptr %4, null
  br i1 %5, label %6, label %12

6:                                                ; preds = %1
  %7 = load ptr, ptr %2, align 8, !tbaa !27
  %8 = load ptr, ptr %7, align 8, !tbaa !55
  call void @php_output_handler_dtor(ptr noundef %8)
  %9 = load ptr, ptr %2, align 8, !tbaa !27
  %10 = load ptr, ptr %9, align 8, !tbaa !55
  call void @_efree(ptr noundef %10)
  %11 = load ptr, ptr %2, align 8, !tbaa !27
  store ptr null, ptr %11, align 8, !tbaa !55
  br label %12

12:                                               ; preds = %6, %1
  ret void
}

; Function Attrs: nounwind uwtable
define dso_local void @php_output_handler_set_context(ptr noundef %0, ptr noundef %1, ptr noundef %2) #0 {
  %4 = alloca ptr, align 8
  %5 = alloca ptr, align 8
  %6 = alloca ptr, align 8
  store ptr %0, ptr %4, align 8, !tbaa !55
  store ptr %1, ptr %5, align 8, !tbaa !4
  store ptr %2, ptr %6, align 8, !tbaa !4
  %7 = load ptr, ptr %4, align 8, !tbaa !55
  %8 = getelementptr inbounds nuw %struct._php_output_handler, ptr %7, i32 0, i32 6
  %9 = load ptr, ptr %8, align 8, !tbaa !92
  %10 = icmp ne ptr %9, null
  br i1 %10, label %11, label %23

11:                                               ; preds = %3
  %12 = load ptr, ptr %4, align 8, !tbaa !55
  %13 = getelementptr inbounds nuw %struct._php_output_handler, ptr %12, i32 0, i32 5
  %14 = load ptr, ptr %13, align 8, !tbaa !93
  %15 = icmp ne ptr %14, null
  br i1 %15, label %16, label %23

16:                                               ; preds = %11
  %17 = load ptr, ptr %4, align 8, !tbaa !55
  %18 = getelementptr inbounds nuw %struct._php_output_handler, ptr %17, i32 0, i32 6
  %19 = load ptr, ptr %18, align 8, !tbaa !92
  %20 = load ptr, ptr %4, align 8, !tbaa !55
  %21 = getelementptr inbounds nuw %struct._php_output_handler, ptr %20, i32 0, i32 5
  %22 = load ptr, ptr %21, align 8, !tbaa !93
  call void %19(ptr noundef %22)
  br label %23

23:                                               ; preds = %16, %11, %3
  %24 = load ptr, ptr %6, align 8, !tbaa !4
  %25 = load ptr, ptr %4, align 8, !tbaa !55
  %26 = getelementptr inbounds nuw %struct._php_output_handler, ptr %25, i32 0, i32 6
  store ptr %24, ptr %26, align 8, !tbaa !92
  %27 = load ptr, ptr %5, align 8, !tbaa !4
  %28 = load ptr, ptr %4, align 8, !tbaa !55
  %29 = getelementptr inbounds nuw %struct._php_output_handler, ptr %28, i32 0, i32 5
  store ptr %27, ptr %29, align 8, !tbaa !93
  ret void
}

; Function Attrs: nounwind uwtable
define dso_local i32 @php_output_start_internal(ptr noundef %0, i64 noundef %1, ptr noundef %2, i64 noundef %3, i32 noundef %4) #0 {
  %6 = alloca i32, align 4
  %7 = alloca ptr, align 8
  %8 = alloca i64, align 8
  %9 = alloca ptr, align 8
  %10 = alloca i64, align 8
  %11 = alloca i32, align 4
  %12 = alloca ptr, align 8
  %13 = alloca i32, align 4
  store ptr %0, ptr %7, align 8, !tbaa !15
  store i64 %1, ptr %8, align 8, !tbaa !17
  store ptr %2, ptr %9, align 8, !tbaa !4
  store i64 %3, ptr %10, align 8, !tbaa !17
  store i32 %4, ptr %11, align 4, !tbaa !57
  call void @llvm.lifetime.start.p0(i64 8, ptr %12) #15
  %14 = load ptr, ptr %7, align 8, !tbaa !15
  %15 = load i64, ptr %8, align 8, !tbaa !17
  %16 = load i64, ptr %10, align 8, !tbaa !17
  %17 = load i32, ptr %11, align 4, !tbaa !57
  %18 = call ptr @php_output_handler_create_internal(ptr noundef %14, i64 noundef %15, ptr noundef @php_output_handler_compat_func, i64 noundef %16, i32 noundef %17)
  store ptr %18, ptr %12, align 8, !tbaa !55
  %19 = load ptr, ptr %12, align 8, !tbaa !55
  %20 = load ptr, ptr %9, align 8, !tbaa !4
  call void @php_output_handler_set_context(ptr noundef %19, ptr noundef %20, ptr noundef null)
  %21 = load ptr, ptr %12, align 8, !tbaa !55
  %22 = call i32 @php_output_handler_start(ptr noundef %21)
  %23 = icmp eq i32 0, %22
  br i1 %23, label %24, label %25

24:                                               ; preds = %5
  store i32 0, ptr %6, align 4
  store i32 1, ptr %13, align 4
  br label %26

25:                                               ; preds = %5
  call void @php_output_handler_free(ptr noundef %12)
  store i32 -1, ptr %6, align 4
  store i32 1, ptr %13, align 4
  br label %26

26:                                               ; preds = %25, %24
  call void @llvm.lifetime.end.p0(i64 8, ptr %12) #15
  %27 = load i32, ptr %6, align 4
  ret i32 %27
}