; Function Attrs: nounwind uwtable
define dso_local range(i32 -1, 1) i32 @php_output_start_internal(ptr noundef readonly captures(none) %0, i64 noundef %1, ptr noundef %2, i64 noundef %3, i32 noundef %4) local_unnamed_addr #0 {
  %6 = tail call ptr @php_output_handler_create_internal(ptr noundef %0, i64 noundef %1, ptr noundef nonnull @php_output_handler_compat_func, i64 noundef %3, i32 noundef %4)
  %7 = getelementptr inbounds nuw i8, ptr %6, i64 64
  %8 = load ptr, ptr %7, align 8, !tbaa !85
  %.not.i = icmp eq ptr %8, null
  br i1 %.not.i, label %php_output_handler_set_context.exit, label %9

9:                                                ; preds = %5
  %10 = getelementptr inbounds nuw i8, ptr %6, i64 56
  %11 = load ptr, ptr %10, align 8, !tbaa !86
  %.not9.i = icmp eq ptr %11, null
  br i1 %.not9.i, label %php_output_handler_set_context.exit, label %12

12:                                               ; preds = %9
  tail call void %8(ptr noundef nonnull %11) #22
  br label %php_output_handler_set_context.exit

php_output_handler_set_context.exit:              ; preds = %5, %9, %12
  store ptr null, ptr %7, align 8, !tbaa !85
  %13 = getelementptr inbounds nuw i8, ptr %6, i64 56
  store ptr %2, ptr %13, align 8, !tbaa !86
  %14 = tail call i32 @php_output_handler_start(ptr noundef nonnull %6)
  %15 = icmp eq i32 %14, 0
  br i1 %15, label %16, label %php_output_handler_free.exit

php_output_handler_free.exit:                     ; preds = %php_output_handler_set_context.exit
  tail call void @php_output_handler_dtor(ptr noundef nonnull %6)
  tail call void @_efree(ptr noundef nonnull %6) #22
  br label %16

16:                                               ; preds = %php_output_handler_set_context.exit, %php_output_handler_free.exit
  %.0 = phi i32 [ -1, %php_output_handler_free.exit ], [ 0, %php_output_handler_set_context.exit ]
  ret i32 %.0
}